target datalayout = "e-m:e-p270:32:32-p271:32:32-p272:64:64-i64:64-i128:128-f80:128-n8:16:32:64-S128"
target triple = "x86_64-pc-linux-gnu"

%struct.lean_object = type { i32, i32 }
%struct.lean_ctor_object = type { %struct.lean_object, [0 x ptr] }

@l_List_foldl___at___private_Lean_Data_Lsp_Communication_0__IO_FS_Stream_readLspHeader___spec__3___closed__1 = internal global ptr null, align 8
@l_List_foldl___at___private_Lean_Data_Lsp_Communication_0__IO_FS_Stream_readLspHeader___spec__3___closed__2 = internal global ptr null, align 8
@l_List_foldl___at___private_Lean_Data_Lsp_Communication_0__IO_FS_Stream_readLspHeader___spec__3___closed__3 = internal global ptr null, align 8
@l_List_toString___at___private_Lean_Data_Lsp_Communication_0__IO_FS_Stream_readLspHeader___spec__2___closed__1 = internal global ptr null, align 8
@l_List_toString___at___private_Lean_Data_Lsp_Communication_0__IO_FS_Stream_readLspHeader___spec__2___closed__2 = internal global ptr null, align 8
@l_List_toString___at___private_Lean_Data_Lsp_Communication_0__IO_FS_Stream_readLspHeader___spec__2___closed__3 = internal global ptr null, align 8

; Function Attrs: inlinehint nounwind uwtable
define internal ptr @lean_to_ctor(ptr noundef %0) #0 {
  %2 = alloca ptr, align 8
  store ptr %0, ptr %2, align 8, !tbaa !4
  %3 = load ptr, ptr %2, align 8, !tbaa !4
  ret ptr %3
}

; Function Attrs: alwaysinline nounwind uwtable
define internal void @lean_dec_ref(ptr noundef %0) #1 {
  %2 = alloca ptr, align 8
  store ptr %0, ptr %2, align 8, !tbaa !4
  %3 = load ptr, ptr %2, align 8, !tbaa !4
  %4 = getelementptr inbounds nuw %struct.lean_object, ptr %3, i32 0, i32 0
  %5 = load i32, ptr %4, align 4, !tbaa !13
  %6 = icmp sgt i32 %5, 1
  %7 = zext i1 %6 to i32
  %8 = sext i32 %7 to i64
  %9 = call i64 @llvm.expect.i64(i64 %8, i64 1)
  %10 = icmp ne i64 %9, 0
  br i1 %10, label %11, label %16

11:                                               ; preds = %1
  %12 = load ptr, ptr %2, align 8, !tbaa !4
  %13 = getelementptr inbounds nuw %struct.lean_object, ptr %12, i32 0, i32 0
  %14 = load i32, ptr %13, align 4, !tbaa !13
  %15 = add i32 %14, -1
  store i32 %15, ptr %13, align 4, !tbaa !13
  br label %24

16:                                               ; preds = %1
  %17 = load ptr, ptr %2, align 8, !tbaa !4
  %18 = getelementptr inbounds nuw %struct.lean_object, ptr %17, i32 0, i32 0
  %19 = load i32, ptr %18, align 4, !tbaa !13
  %20 = icmp ne i32 %19, 0
  br i1 %20, label %21, label %23

21:                                               ; preds = %16
  %22 = load ptr, ptr %2, align 8, !tbaa !4
  call void @lean_dec_ref_cold(ptr noundef %22)
  br label %23

23:                                               ; preds = %21, %16
  br label %24

24:                                               ; preds = %23, %11
  ret void
}

; Function Attrs: inlinehint nounwind uwtable
define internal ptr @lean_ctor_obj_cptr(ptr noundef %0) #0 {
  %2 = alloca ptr, align 8
  store ptr %0, ptr %2, align 8, !tbaa !4
  %3 = load ptr, ptr %2, align 8, !tbaa !4
  %4 = call ptr @lean_to_ctor(ptr noundef %3)
  %5 = getelementptr inbounds nuw %struct.lean_ctor_object, ptr %4, i32 0, i32 1
  %6 = getelementptr inbounds [0 x ptr], ptr %5, i64 0, i64 0
  ret ptr %6
}

; Function Attrs: inlinehint nounwind uwtable
define internal zeroext i8 @lean_ptr_tag(ptr noundef %0) #0 {
  %2 = alloca ptr, align 8
  store ptr %0, ptr %2, align 8, !tbaa !4
  %3 = load ptr, ptr %2, align 8, !tbaa !4
  %4 = getelementptr inbounds nuw %struct.lean_object, ptr %3, i32 0, i32 1
  %5 = load i32, ptr %4, align 4
  %6 = lshr i32 %5, 24
  %7 = trunc i32 %6 to i8
  ret i8 %7
}

; Function Attrs: inlinehint nounwind uwtable
define internal i64 @lean_unbox(ptr noundef %0) #0 {
  %2 = alloca ptr, align 8
  store ptr %0, ptr %2, align 8, !tbaa !4
  %3 = load ptr, ptr %2, align 8, !tbaa !4
  %4 = ptrtoint ptr %3 to i64
  %5 = lshr i64 %4, 1
  ret i64 %5
}

; Function Attrs: alwaysinline nounwind uwtable
define internal zeroext i1 @lean_is_scalar(ptr noundef %0) #1 {
  %2 = alloca ptr, align 8
  store ptr %0, ptr %2, align 8, !tbaa !4
  %3 = load ptr, ptr %2, align 8, !tbaa !4
  %4 = ptrtoint ptr %3 to i64
  %5 = and i64 %4, 1
  %6 = icmp eq i64 %5, 1
  ret i1 %6
}

; Function Attrs: alwaysinline nounwind uwtable
define internal void @lean_dec(ptr noundef %0) #1 {
  %2 = alloca ptr, align 8
  store ptr %0, ptr %2, align 8, !tbaa !4
  %3 = load ptr, ptr %2, align 8, !tbaa !4
  %4 = call zeroext i1 @lean_is_scalar(ptr noundef %3)
  br i1 %4, label %7, label %5

5:                                                ; preds = %1
  %6 = load ptr, ptr %2, align 8, !tbaa !4
  call void @lean_dec_ref(ptr noundef %6)
  br label %7

7:                                                ; preds = %5, %1
  ret void
}

; Function Attrs: inlinehint nounwind uwtable
define internal ptr @lean_ctor_get(ptr noundef %0, i32 noundef %1) #0 {
  %3 = alloca ptr, align 8
  %4 = alloca i32, align 4
  store ptr %0, ptr %3, align 8, !tbaa !4
  store i32 %1, ptr %4, align 4, !tbaa !11
  %5 = load ptr, ptr %3, align 8, !tbaa !4
  %6 = call ptr @lean_ctor_obj_cptr(ptr noundef %5)
  %7 = load i32, ptr %4, align 4, !tbaa !11
  %8 = zext i32 %7 to i64
  %9 = getelementptr inbounds nuw ptr, ptr %6, i64 %8
  %10 = load ptr, ptr %9, align 8, !tbaa !4
  ret ptr %10
}

; Function Attrs: inlinehint nounwind uwtable
define internal i32 @lean_obj_tag(ptr noundef %0) #0 {
  %2 = alloca i32, align 4
  %3 = alloca ptr, align 8
  store ptr %0, ptr %3, align 8, !tbaa !4
  %4 = load ptr, ptr %3, align 8, !tbaa !4
  %5 = call zeroext i1 @lean_is_scalar(ptr noundef %4)
  br i1 %5, label %6, label %10

6:                                                ; preds = %1
  %7 = load ptr, ptr %3, align 8, !tbaa !4
  %8 = call i64 @lean_unbox(ptr noundef %7)
  %9 = trunc i64 %8 to i32
  store i32 %9, ptr %2, align 4
  br label %14

10:                                               ; preds = %1
  %11 = load ptr, ptr %3, align 8, !tbaa !4
  %12 = call zeroext i8 @lean_ptr_tag(ptr noundef %11)
  %13 = zext i8 %12 to i32
  store i32 %13, ptr %2, align 4
  br label %14

14:                                               ; preds = %10, %6
  %15 = load i32, ptr %2, align 4
  ret i32 %15
}

; Function Attrs: nounwind uwtable
define ptr @l_List_toString___at___private_Lean_Data_Lsp_Communication_0__IO_FS_Stream_readLspHeader___spec__2(ptr noundef %0) #2 {
  %2 = alloca ptr, align 8
  %3 = alloca ptr, align 8
  %4 = alloca ptr, align 8
  %5 = alloca ptr, align 8
  %6 = alloca ptr, align 8
  %7 = alloca ptr, align 8
  %8 = alloca ptr, align 8
  %9 = alloca ptr, align 8
  %10 = alloca ptr, align 8
  %11 = alloca ptr, align 8
  %12 = alloca ptr, align 8
  %13 = alloca ptr, align 8
  %14 = alloca ptr, align 8
  %15 = alloca ptr, align 8
  %16 = alloca ptr, align 8
  %17 = alloca ptr, align 8
  %18 = alloca ptr, align 8
  %19 = alloca ptr, align 8
  %20 = alloca i32, align 4
  %21 = alloca ptr, align 8
  %22 = alloca i32, align 4
  %23 = alloca ptr, align 8
  %24 = alloca ptr, align 8
  %25 = alloca ptr, align 8
  %26 = alloca ptr, align 8
  %27 = alloca ptr, align 8
  %28 = alloca ptr, align 8
  %29 = alloca ptr, align 8
  %30 = alloca ptr, align 8
  %31 = alloca ptr, align 8
  %32 = alloca ptr, align 8
  %33 = alloca ptr, align 8
  %34 = alloca ptr, align 8
  %35 = alloca ptr, align 8
  store ptr %0, ptr %3, align 8, !tbaa !4
  br label %36

36:                                               ; preds = %1
  %37 = load ptr, ptr %3, align 8, !tbaa !4
  %38 = call i32 @lean_obj_tag(ptr noundef %37)
  %39 = icmp eq i32 %38, 0
  br i1 %39, label %40, label %43

40:                                               ; preds = %36
  call void @llvm.lifetime.start.p0(i64 8, ptr %4) #7
  %41 = load ptr, ptr @l_List_toString___at___private_Lean_Data_Lsp_Communication_0__IO_FS_Stream_readLspHeader___spec__2___closed__1, align 8, !tbaa !4
  store ptr %41, ptr %4, align 8, !tbaa !4
  %42 = load ptr, ptr %4, align 8, !tbaa !4
  store ptr %42, ptr %2, align 8
  call void @llvm.lifetime.end.p0(i64 8, ptr %4) #7
  br label %116

43:                                               ; preds = %36
  call void @llvm.lifetime.start.p0(i64 8, ptr %5) #7
  %44 = load ptr, ptr %3, align 8, !tbaa !4
  %45 = call ptr @lean_ctor_get(ptr noundef %44, i32 noundef 1)
  store ptr %45, ptr %5, align 8, !tbaa !4
  %46 = load ptr, ptr %5, align 8, !tbaa !4
  %47 = call i32 @lean_obj_tag(ptr noundef %46)
  %48 = icmp eq i32 %47, 0
  br i1 %48, label %49, label %81

49:                                               ; preds = %43
  call void @llvm.lifetime.start.p0(i64 8, ptr %6) #7
  call void @llvm.lifetime.start.p0(i64 8, ptr %7) #7
  call void @llvm.lifetime.start.p0(i64 8, ptr %8) #7
  call void @llvm.lifetime.start.p0(i64 8, ptr %9) #7
  call void @llvm.lifetime.start.p0(i64 8, ptr %10) #7
  call void @llvm.lifetime.start.p0(i64 8, ptr %11) #7
  call void @llvm.lifetime.start.p0(i64 8, ptr %12) #7
  call void @llvm.lifetime.start.p0(i64 8, ptr %13) #7
  call void @llvm.lifetime.start.p0(i64 8, ptr %14) #7
  call void @llvm.lifetime.start.p0(i64 8, ptr %15) #7
  call void @llvm.lifetime.start.p0(i64 8, ptr %16) #7
  call void @llvm.lifetime.start.p0(i64 8, ptr %17) #7
  call void @llvm.lifetime.start.p0(i64 8, ptr %18) #7
  call void @llvm.lifetime.start.p0(i64 8, ptr %19) #7
  %50 = load ptr, ptr %3, align 8, !tbaa !4
  %51 = call ptr @lean_ctor_get(ptr noundef %50, i32 noundef 0)
  store ptr %51, ptr %6, align 8, !tbaa !4
  %52 = load ptr, ptr %6, align 8, !tbaa !4
  %53 = call ptr @lean_ctor_get(ptr noundef %52, i32 noundef 0)
  store ptr %53, ptr %7, align 8, !tbaa !4
  %54 = load ptr, ptr %6, align 8, !tbaa !4
  %55 = call ptr @lean_ctor_get(ptr noundef %54, i32 noundef 1)
  store ptr %55, ptr %8, align 8, !tbaa !4
  %56 = load ptr, ptr @l_List_foldl___at___private_Lean_Data_Lsp_Communication_0__IO_FS_Stream_readLspHeader___spec__3___closed__2, align 8, !tbaa !4
  store ptr %56, ptr %9, align 8, !tbaa !4
  %57 = load ptr, ptr %9, align 8, !tbaa !4
  %58 = load ptr, ptr %7, align 8, !tbaa !4
  %59 = call ptr @lean_string_append(ptr noundef %57, ptr noundef %58)
  store ptr %59, ptr %10, align 8, !tbaa !4
  %60 = load ptr, ptr @l_List_foldl___at___private_Lean_Data_Lsp_Communication_0__IO_FS_Stream_readLspHeader___spec__3___closed__1, align 8, !tbaa !4
  store ptr %60, ptr %11, align 8, !tbaa !4
  %61 = load ptr, ptr %10, align 8, !tbaa !4
  %62 = load ptr, ptr %11, align 8, !tbaa !4
  %63 = call ptr @lean_string_append(ptr noundef %61, ptr noundef %62)
  store ptr %63, ptr %12, align 8, !tbaa !4
  %64 = load ptr, ptr %12, align 8, !tbaa !4
  %65 = load ptr, ptr %8, align 8, !tbaa !4
  %66 = call ptr @lean_string_append(ptr noundef %64, ptr noundef %65)
  store ptr %66, ptr %13, align 8, !tbaa !4
  %67 = load ptr, ptr @l_List_foldl___at___private_Lean_Data_Lsp_Communication_0__IO_FS_Stream_readLspHeader___spec__3___closed__3, align 8, !tbaa !4
  store ptr %67, ptr %14, align 8, !tbaa !4
  %68 = load ptr, ptr %13, align 8, !tbaa !4
  %69 = load ptr, ptr %14, align 8, !tbaa !4
  %70 = call ptr @lean_string_append(ptr noundef %68, ptr noundef %69)
  store ptr %70, ptr %15, align 8, !tbaa !4
  %71 = load ptr, ptr @l_List_toString___at___private_Lean_Data_Lsp_Communication_0__IO_FS_Stream_readLspHeader___spec__2___closed__2, align 8, !tbaa !4
  store ptr %71, ptr %16, align 8, !tbaa !4
  %72 = load ptr, ptr %16, align 8, !tbaa !4
  %73 = load ptr, ptr %15, align 8, !tbaa !4
  %74 = call ptr @lean_string_append(ptr noundef %72, ptr noundef %73)
  store ptr %74, ptr %17, align 8, !tbaa !4
  %75 = load ptr, ptr %15, align 8, !tbaa !4
  call void @lean_dec(ptr noundef %75)
  %76 = load ptr, ptr @l_List_toString___at___private_Lean_Data_Lsp_Communication_0__IO_FS_Stream_readLspHeader___spec__2___closed__3, align 8, !tbaa !4
  store ptr %76, ptr %18, align 8, !tbaa !4
  %77 = load ptr, ptr %17, align 8, !tbaa !4
  %78 = load ptr, ptr %18, align 8, !tbaa !4
  %79 = call ptr @lean_string_append(ptr noundef %77, ptr noundef %78)
  store ptr %79, ptr %19, align 8, !tbaa !4
  %80 = load ptr, ptr %19, align 8, !tbaa !4
  store ptr %80, ptr %2, align 8
  store i32 1, ptr %20, align 4
  call void @llvm.lifetime.end.p0(i64 8, ptr %19) #7
  call void @llvm.lifetime.end.p0(i64 8, ptr %18) #7
  call void @llvm.lifetime.end.p0(i64 8, ptr %17) #7
  call void @llvm.lifetime.end.p0(i64 8, ptr %16) #7
  call void @llvm.lifetime.end.p0(i64 8, ptr %15) #7
  call void @llvm.lifetime.end.p0(i64 8, ptr %14) #7
  call void @llvm.lifetime.end.p0(i64 8, ptr %13) #7
  call void @llvm.lifetime.end.p0(i64 8, ptr %12) #7
  call void @llvm.lifetime.end.p0(i64 8, ptr %11) #7
  call void @llvm.lifetime.end.p0(i64 8, ptr %10) #7
  call void @llvm.lifetime.end.p0(i64 8, ptr %9) #7
  call void @llvm.lifetime.end.p0(i64 8, ptr %8) #7
  call void @llvm.lifetime.end.p0(i64 8, ptr %7) #7
  call void @llvm.lifetime.end.p0(i64 8, ptr %6) #7
  br label %115

81:                                               ; preds = %43
  call void @llvm.lifetime.start.p0(i64 8, ptr %21) #7
  call void @llvm.lifetime.start.p0(i64 4, ptr %22) #7
  call void @llvm.lifetime.start.p0(i64 8, ptr %23) #7
  call void @llvm.lifetime.start.p0(i64 8, ptr %24) #7
  call void @llvm.lifetime.start.p0(i64 8, ptr %25) #7
  call void @llvm.lifetime.start.p0(i64 8, ptr %26) #7
  call void @llvm.lifetime.start.p0(i64 8, ptr %27) #7
  call void @llvm.lifetime.start.p0(i64 8, ptr %28) #7
  call void @llvm.lifetime.start.p0(i64 8, ptr %29) #7
  call void @llvm.lifetime.start.p0(i64 8, ptr %30) #7
  call void @llvm.lifetime.start.p0(i64 8, ptr %31) #7
  call void @llvm.lifetime.start.p0(i64 8, ptr %32) #7
  call void @llvm.lifetime.start.p0(i64 8, ptr %33) #7
  call void @llvm.lifetime.start.p0(i64 8, ptr %34) #7
  call void @llvm.lifetime.start.p0(i64 8, ptr %35) #7
  %82 = load ptr, ptr %3, align 8, !tbaa !4
  %83 = call ptr @lean_ctor_get(ptr noundef %82, i32 noundef 0)
  store ptr %83, ptr %21, align 8, !tbaa !4
  store i32 93, ptr %22, align 4, !tbaa !11
  %84 = load ptr, ptr %21, align 8, !tbaa !4
  %85 = call ptr @lean_ctor_get(ptr noundef %84, i32 noundef 0)
  store ptr %85, ptr %23, align 8, !tbaa !4
  %86 = load ptr, ptr %21, align 8, !tbaa !4
  %87 = call ptr @lean_ctor_get(ptr noundef %86, i32 noundef 1)
  store ptr %87, ptr %24, align 8, !tbaa !4
  %88 = load ptr, ptr @l_List_foldl___at___private_Lean_Data_Lsp_Communication_0__IO_FS_Stream_readLspHeader___spec__3___closed__2, align 8, !tbaa !4
  store ptr %88, ptr %25, align 8, !tbaa !4
  %89 = load ptr, ptr %25, align 8, !tbaa !4
  %90 = load ptr, ptr %23, align 8, !tbaa !4
  %91 = call ptr @lean_string_append(ptr noundef %89, ptr noundef %90)
  store ptr %91, ptr %26, align 8, !tbaa !4
  %92 = load ptr, ptr @l_List_foldl___at___private_Lean_Data_Lsp_Communication_0__IO_FS_Stream_readLspHeader___spec__3___closed__1, align 8, !tbaa !4
  store ptr %92, ptr %27, align 8, !tbaa !4
  %93 = load ptr, ptr %26, align 8, !tbaa !4
  %94 = load ptr, ptr %27, align 8, !tbaa !4
  %95 = call ptr @lean_string_append(ptr noundef %93, ptr noundef %94)
  store ptr %95, ptr %28, align 8, !tbaa !4
  %96 = load ptr, ptr %28, align 8, !tbaa !4
  %97 = load ptr, ptr %24, align 8, !tbaa !4
  %98 = call ptr @lean_string_append(ptr noundef %96, ptr noundef %97)
  store ptr %98, ptr %29, align 8, !tbaa !4
  %99 = load ptr, ptr @l_List_foldl___at___private_Lean_Data_Lsp_Communication_0__IO_FS_Stream_readLspHeader___spec__3___closed__3, align 8, !tbaa !4
  store ptr %99, ptr %30, align 8, !tbaa !4
  %100 = load ptr, ptr %29, align 8, !tbaa !4
  %101 = load ptr, ptr %30, align 8, !tbaa !4
  %102 = call ptr @lean_string_append(ptr noundef %100, ptr noundef %101)
  store ptr %102, ptr %31, align 8, !tbaa !4
  %103 = load ptr, ptr @l_List_toString___at___private_Lean_Data_Lsp_Communication_0__IO_FS_Stream_readLspHeader___spec__2___closed__2, align 8, !tbaa !4
  store ptr %103, ptr %32, align 8, !tbaa !4
  %104 = load ptr, ptr %32, align 8, !tbaa !4
  %105 = load ptr, ptr %31, align 8, !tbaa !4
  %106 = call ptr @lean_string_append(ptr noundef %104, ptr noundef %105)
  store ptr %106, ptr %33, align 8, !tbaa !4
  %107 = load ptr, ptr %31, align 8, !tbaa !4
  call void @lean_dec(ptr noundef %107)
  %108 = load ptr, ptr %33, align 8, !tbaa !4
  %109 = load ptr, ptr %5, align 8, !tbaa !4
  %110 = call ptr @l_List_foldl___at___private_Lean_Data_Lsp_Communication_0__IO_FS_Stream_readLspHeader___spec__3(ptr noundef %108, ptr noundef %109)
  store ptr %110, ptr %34, align 8, !tbaa !4
  %111 = load ptr, ptr %34, align 8, !tbaa !4
  %112 = load i32, ptr %22, align 4, !tbaa !11
  %113 = call ptr @lean_string_push(ptr noundef %111, i32 noundef %112)
  store ptr %113, ptr %35, align 8, !tbaa !4
  %114 = load ptr, ptr %35, align 8, !tbaa !4
  store ptr %114, ptr %2, align 8
  store i32 1, ptr %20, align 4
  call void @llvm.lifetime.end.p0(i64 8, ptr %35) #7
  call void @llvm.lifetime.end.p0(i64 8, ptr %34) #7
  call void @llvm.lifetime.end.p0(i64 8, ptr %33) #7
  call void @llvm.lifetime.end.p0(i64 8, ptr %32) #7
  call void @llvm.lifetime.end.p0(i64 8, ptr %31) #7
  call void @llvm.lifetime.end.p0(i64 8, ptr %30) #7
  call void @llvm.lifetime.end.p0(i64 8, ptr %29) #7
  call void @llvm.lifetime.end.p0(i64 8, ptr %28) #7
  call void @llvm.lifetime.end.p0(i64 8, ptr %27) #7
  call void @llvm.lifetime.end.p0(i64 8, ptr %26) #7
  call void @llvm.lifetime.end.p0(i64 8, ptr %25) #7
  call void @llvm.lifetime.end.p0(i64 8, ptr %24) #7
  call void @llvm.lifetime.end.p0(i64 8, ptr %23) #7
  call void @llvm.lifetime.end.p0(i64 4, ptr %22) #7
  call void @llvm.lifetime.end.p0(i64 8, ptr %21) #7
  br label %115

115:                                              ; preds = %81, %49
  call void @llvm.lifetime.end.p0(i64 8, ptr %5) #7
  br label %116

116:                                              ; preds = %115, %40
  %117 = load ptr, ptr %2, align 8
  ret ptr %117
}