; Function Attrs: nounwind uwtable
define ptr @l_List_toString___at___private_Lean_Data_Lsp_Communication_0__IO_FS_Stream_readLspHeader___spec__2(ptr noundef %0) local_unnamed_addr #0 {
  %2 = ptrtoint ptr %0 to i64
  %3 = and i64 %2, 1
  %.not.i43 = icmp eq i64 %3, 0
  br i1 %.not.i43, label %7, label %4

4:                                                ; preds = %1
  %5 = lshr i64 %2, 1
  %6 = trunc i64 %5 to i32
  br label %lean_obj_tag.exit

7:                                                ; preds = %1
  %8 = getelementptr i8, ptr %0, i64 4
  %.val.i = load i32, ptr %8, align 4
  %9 = lshr i32 %.val.i, 24
  br label %lean_obj_tag.exit

lean_obj_tag.exit:                                ; preds = %4, %7
  %.0.i = phi i32 [ %6, %4 ], [ %9, %7 ]
  %10 = icmp eq i32 %.0.i, 0
  br i1 %10, label %11, label %13

11:                                               ; preds = %lean_obj_tag.exit
  %12 = load ptr, ptr @l_List_toString___at___private_Lean_Data_Lsp_Communication_0__IO_FS_Stream_readLspHeader___spec__2___closed__1, align 8, !tbaa !4
  br label %62

13:                                               ; preds = %lean_obj_tag.exit
  %14 = getelementptr inbounds nuw i8, ptr %0, i64 8
  %15 = getelementptr inbounds nuw i8, ptr %0, i64 16
  %16 = load ptr, ptr %15, align 8, !tbaa !4
  %17 = ptrtoint ptr %16 to i64
  %18 = and i64 %17, 1
  %.not.i44 = icmp eq i64 %18, 0
  br i1 %.not.i44, label %22, label %19

19:                                               ; preds = %13
  %20 = lshr i64 %17, 1
  %21 = trunc i64 %20 to i32
  br label %lean_obj_tag.exit47

22:                                               ; preds = %13
  %23 = getelementptr i8, ptr %16, i64 4
  %.val.i46 = load i32, ptr %23, align 4
  %24 = lshr i32 %.val.i46, 24
  br label %lean_obj_tag.exit47

lean_obj_tag.exit47:                              ; preds = %19, %22
  %.0.i45 = phi i32 [ %21, %19 ], [ %24, %22 ]
  %25 = icmp eq i32 %.0.i45, 0
  %26 = load ptr, ptr %14, align 8, !tbaa !4
  %27 = getelementptr inbounds nuw i8, ptr %26, i64 8
  %28 = load ptr, ptr %27, align 8, !tbaa !4
  %29 = getelementptr inbounds nuw i8, ptr %26, i64 16
  %30 = load ptr, ptr %29, align 8, !tbaa !4
  %31 = load ptr, ptr @l_List_foldl___at___private_Lean_Data_Lsp_Communication_0__IO_FS_Stream_readLspHeader___spec__3___closed__2, align 8, !tbaa !4
  %32 = tail call ptr @lean_string_append(ptr noundef %31, ptr noundef %28) #4
  %33 = load ptr, ptr @l_List_foldl___at___private_Lean_Data_Lsp_Communication_0__IO_FS_Stream_readLspHeader___spec__3___closed__1, align 8, !tbaa !4
  %34 = tail call ptr @lean_string_append(ptr noundef %32, ptr noundef %33) #4
  %35 = tail call ptr @lean_string_append(ptr noundef %34, ptr noundef %30) #4
  %36 = load ptr, ptr @l_List_foldl___at___private_Lean_Data_Lsp_Communication_0__IO_FS_Stream_readLspHeader___spec__3___closed__3, align 8, !tbaa !4
  %37 = tail call ptr @lean_string_append(ptr noundef %35, ptr noundef %36) #4
  %38 = load ptr, ptr @l_List_toString___at___private_Lean_Data_Lsp_Communication_0__IO_FS_Stream_readLspHeader___spec__2___closed__2, align 8, !tbaa !4
  %39 = tail call ptr @lean_string_append(ptr noundef %38, ptr noundef %37) #4
  %40 = ptrtoint ptr %37 to i64
  %41 = and i64 %40, 1
  %.not48 = icmp eq i64 %41, 0
  br i1 %25, label %42, label %52

42:                                               ; preds = %lean_obj_tag.exit47
  br i1 %.not48, label %43, label %lean_dec.exit40

43:                                               ; preds = %42
  %44 = load i32, ptr %37, align 4, !tbaa !10
  %45 = icmp sgt i32 %44, 1
  br i1 %45, label %46, label %48, !prof !13

46:                                               ; preds = %43
  %47 = add nsw i32 %44, -1
  store i32 %47, ptr %37, align 4, !tbaa !10
  br label %lean_dec.exit40

48:                                               ; preds = %43
  %.not.i = icmp eq i32 %44, 0
  br i1 %.not.i, label %lean_dec.exit40, label %49

49:                                               ; preds = %48
  tail call void @lean_dec_ref_cold(ptr noundef nonnull %37) #4
  br label %lean_dec.exit40

lean_dec.exit40:                                  ; preds = %49, %48, %46, %42
  %50 = load ptr, ptr @l_List_toString___at___private_Lean_Data_Lsp_Communication_0__IO_FS_Stream_readLspHeader___spec__2___closed__3, align 8, !tbaa !4
  %51 = tail call ptr @lean_string_append(ptr noundef %39, ptr noundef %50) #4
  br label %62

52:                                               ; preds = %lean_obj_tag.exit47
  br i1 %.not48, label %53, label %lean_dec.exit

53:                                               ; preds = %52
  %54 = load i32, ptr %37, align 4, !tbaa !10
  %55 = icmp sgt i32 %54, 1
  br i1 %55, label %56, label %58, !prof !13

56:                                               ; preds = %53
  %57 = add nsw i32 %54, -1
  store i32 %57, ptr %37, align 4, !tbaa !10
  br label %lean_dec.exit

58:                                               ; preds = %53
  %.not.i41 = icmp eq i32 %54, 0
  br i1 %.not.i41, label %lean_dec.exit, label %59

59:                                               ; preds = %58
  tail call void @lean_dec_ref_cold(ptr noundef nonnull %37) #4
  br label %lean_dec.exit

lean_dec.exit:                                    ; preds = %59, %58, %56, %52
  %60 = tail call ptr @l_List_foldl___at___private_Lean_Data_Lsp_Communication_0__IO_FS_Stream_readLspHeader___spec__3(ptr noundef %39, ptr noundef %16)
  %61 = tail call ptr @lean_string_push(ptr noundef %60, i32 noundef 93) #4
  br label %62

62:                                               ; preds = %lean_dec.exit40, %lean_dec.exit, %11
  %.0 = phi ptr [ %12, %11 ], [ %51, %lean_dec.exit40 ], [ %61, %lean_dec.exit ]
  ret ptr %.0
}